target datalayout = "e-m:e-p270:32:32-p271:32:32-p272:64:64-i64:64-i128:128-f80:128-n8:16:32:64-S128"
target triple = "x86_64-pc-linux-gnu"

@.str = private unnamed_addr constant [20 x i8] c"PYFUNC_EVENT_CREATE\00", align 1
@.str.1 = private unnamed_addr constant [21 x i8] c"PYFUNC_EVENT_DESTROY\00", align 1
@.str.2 = private unnamed_addr constant [25 x i8] c"PYFUNC_EVENT_MODIFY_CODE\00", align 1
@.str.3 = private unnamed_addr constant [29 x i8] c"PYFUNC_EVENT_MODIFY_DEFAULTS\00", align 1
@.str.4 = private unnamed_addr constant [31 x i8] c"PYFUNC_EVENT_MODIFY_KWDEFAULTS\00", align 1

; Function Attrs: nounwind uwtable
define internal i32 @add_func_event(ptr noundef %0, ptr noundef %1, i32 noundef %2) #0 {
  %4 = alloca ptr, align 8
  %5 = alloca ptr, align 8
  %6 = alloca i32, align 4
  store ptr %0, ptr %4, align 8, !tbaa !3
  store ptr %1, ptr %5, align 8, !tbaa !8
  store i32 %2, ptr %6, align 4, !tbaa !10
  %7 = load ptr, ptr %4, align 8, !tbaa !3
  %8 = load ptr, ptr %5, align 8, !tbaa !8
  %9 = load i32, ptr %6, align 4, !tbaa !10
  %10 = zext i32 %9 to i64
  %11 = call ptr @PyLong_FromLong(i64 noundef %10)
  %12 = call i32 @PyModule_Add(ptr noundef %7, ptr noundef %8, ptr noundef %11)
  ret i32 %12
}

; Function Attrs: nounwind uwtable
define hidden i32 @_PyTestCapi_Init_Watchers(ptr noundef %0) #0 {
  %2 = alloca i32, align 4
  %3 = alloca ptr, align 8
  store ptr %0, ptr %3, align 8, !tbaa !3
  %4 = load ptr, ptr %3, align 8, !tbaa !3
  %5 = call i32 @PyModule_AddFunctions(ptr noundef %4, ptr noundef @test_methods)
  %6 = icmp slt i32 %5, 0
  br i1 %6, label %7, label %8

7:                                                ; preds = %1
  store i32 -1, ptr %2, align 4
  br label %34

8:                                                ; preds = %1
  %9 = load ptr, ptr %3, align 8, !tbaa !3
  %10 = call i32 @add_func_event(ptr noundef %9, ptr noundef @.str, i32 noundef 0)
  %11 = icmp ne i32 %10, 0
  br i1 %11, label %12, label %13

12:                                               ; preds = %8
  store i32 -1, ptr %2, align 4
  br label %34

13:                                               ; preds = %8
  %14 = load ptr, ptr %3, align 8, !tbaa !3
  %15 = call i32 @add_func_event(ptr noundef %14, ptr noundef @.str.1, i32 noundef 1)
  %16 = icmp ne i32 %15, 0
  br i1 %16, label %17, label %18

17:                                               ; preds = %13
  store i32 -1, ptr %2, align 4
  br label %34

18:                                               ; preds = %13
  %19 = load ptr, ptr %3, align 8, !tbaa !3
  %20 = call i32 @add_func_event(ptr noundef %19, ptr noundef @.str.2, i32 noundef 2)
  %21 = icmp ne i32 %20, 0
  br i1 %21, label %22, label %23

22:                                               ; preds = %18
  store i32 -1, ptr %2, align 4
  br label %34

23:                                               ; preds = %18
  %24 = load ptr, ptr %3, align 8, !tbaa !3
  %25 = call i32 @add_func_event(ptr noundef %24, ptr noundef @.str.3, i32 noundef 3)
  %26 = icmp ne i32 %25, 0
  br i1 %26, label %27, label %28

27:                                               ; preds = %23
  store i32 -1, ptr %2, align 4
  br label %34

28:                                               ; preds = %23
  %29 = load ptr, ptr %3, align 8, !tbaa !3
  %30 = call i32 @add_func_event(ptr noundef %29, ptr noundef @.str.4, i32 noundef 4)
  %31 = icmp ne i32 %30, 0
  br i1 %31, label %32, label %33

32:                                               ; preds = %28
  store i32 -1, ptr %2, align 4
  br label %34

33:                                               ; preds = %28
  store i32 0, ptr %2, align 4
  br label %34

34:                                               ; preds = %33, %32, %27, %22, %17, %12, %7
  %35 = load i32, ptr %2, align 4
  ret i32 %35
}