; Function Attrs: nounwind uwtable
define hidden range(i32 -1, 1) i32 @_PyTestCapi_Init_Watchers(ptr noundef %0) local_unnamed_addr #0 {
  %2 = tail call i32 @PyModule_AddFunctions(ptr noundef %0, ptr noundef nonnull @test_methods) #6
  %3 = icmp slt i32 %2, 0
  br i1 %3, label %19, label %4

4:                                                ; preds = %1
  %5 = tail call ptr @PyLong_FromLong(i64 noundef 0) #6
  %6 = tail call i32 @PyModule_Add(ptr noundef %0, ptr noundef nonnull @.str, ptr noundef %5) #6
  %.not = icmp eq i32 %6, 0
  br i1 %.not, label %7, label %19

7:                                                ; preds = %4
  %8 = tail call ptr @PyLong_FromLong(i64 noundef 1) #6
  %9 = tail call i32 @PyModule_Add(ptr noundef %0, ptr noundef nonnull @.str.1, ptr noundef %8) #6
  %.not6 = icmp eq i32 %9, 0
  br i1 %.not6, label %10, label %19

10:                                               ; preds = %7
  %11 = tail call ptr @PyLong_FromLong(i64 noundef 2) #6
  %12 = tail call i32 @PyModule_Add(ptr noundef %0, ptr noundef nonnull @.str.2, ptr noundef %11) #6
  %.not7 = icmp eq i32 %12, 0
  br i1 %.not7, label %13, label %19

13:                                               ; preds = %10
  %14 = tail call ptr @PyLong_FromLong(i64 noundef 3) #6
  %15 = tail call i32 @PyModule_Add(ptr noundef %0, ptr noundef nonnull @.str.3, ptr noundef %14) #6
  %.not8 = icmp eq i32 %15, 0
  br i1 %.not8, label %16, label %19

16:                                               ; preds = %13
  %17 = tail call ptr @PyLong_FromLong(i64 noundef 4) #6
  %18 = tail call i32 @PyModule_Add(ptr noundef %0, ptr noundef nonnull @.str.4, ptr noundef %17) #6
  %.not9 = icmp ne i32 %18, 0
  %. = sext i1 %.not9 to i32
  br label %19

19:                                               ; preds = %16, %13, %10, %7, %4, %1
  %.0 = phi i32 [ -1, %1 ], [ -1, %4 ], [ -1, %7 ], [ -1, %10 ], [ -1, %13 ], [ %., %16 ]
  ret i32 %.0
}